target datalayout = "e-m:e-p270:32:32-p271:32:32-p272:64:64-i64:64-i128:128-f80:128-n8:16:32:64-S128"
target triple = "x86_64-unknown-linux-gnu"

%struct.redisServer = type { i32, i64, ptr, ptr, ptr, i32, i32, i32, i32, i32, ptr, ptr, ptr, ptr, ptr, ptr, i32, i32, i64, i32, i32, i32, i32, ptr, i32, i32, [41 x i8], i32, i64, i32, i32, i32, ptr, ptr, i32, i32, i64, ptr, ptr, ptr, ptr, [2 x i32], i32, i32, i32, i32, i32, [16 x ptr], i32, ptr, ptr, i32, [8 x %struct.connListener], i32, %struct.connListener, ptr, ptr, ptr, ptr, ptr, ptr, ptr, ptr, ptr, ptr, i32, ptr, i32, ptr, [3 x %struct.pause_event], [256 x i8], ptr, i64, i32, i32, i32, i32, i64, i32, i32, i32, i32, i32, i64, i64, i64, i64, i64, i64, i64, i64, i64, double, i64, i64, i64, i64, i64, i64, i64, i64, i64, i64, i64, i64, i64, i64, i64, i64, i64, i64, i64, i64, double, i64, i64, i64, i64, i64, ptr, i64, i64, i64, %struct.malloc_stats, i64, i64, i64, i64, i64, i64, i64, i64, i64, i64, i64, i64, double, [4 x i64], i64, i64, i64, i64, i64, i64, i64, i64, i64, i64, [7 x %struct.anon], i64, i64, i64, i64, i64, i64, [4 x %struct.durationStats], i32, i32, i32, i32, i32, i32, i32, i32, i32, i32, i64, i32, i32, i32, i32, i64, i64, i32, i32, i32, i32, i32, ptr, [3 x %struct.clientBufferLimitsConfig], i32, i32, ptr, i32, i32, i32, i32, ptr, ptr, i32, i32, i64, i64, i64, i64, i64, i32, i32, ptr, i32, i32, i64, i64, i64, i64, i64, i32, i32, i64, i32, i32, i32, i32, i32, i32, i32, i32, ptr, i32, i64, i64, i64, i64, ptr, i32, ptr, i32, i32, i32, i64, i64, i64, i64, i32, i32, i32, i32, i32, i32, ptr, i32, i32, ptr, i32, i32, i32, [2 x i32], i32, %struct.redisOpArray, i32, ptr, i32, ptr, i32, i32, i32, i32, i32, i32, i32, [41 x i8], [41 x i8], i64, i64, i64, i64, i32, i32, ptr, i64, i64, i64, i32, i32, i32, i32, i32, i32, i32, i64, ptr, ptr, ptr, ptr, i32, i32, ptr, ptr, i32, i32, i64, i64, i64, ptr, i32, ptr, i64, i32, i32, i32, i64, i32, i32, i32, i32, ptr, i32, i32, [41 x i8], i64, i32, ptr, i32, i32, i64, i64, i32, i32, i32, i32, i32, i64, [3 x i32], i32, i32, i32, [9 x i32], ptr, ptr, i32, i64, ptr, ptr, i32, i32, i32, i32, i64, i64, i64, i64, i64, i64, i64, i64, i64, i64, i32, i32, i64, i64, i32, i64, i64, i64, i64, i64, ptr, ptr, i32, ptr, i32, i32, i32, i64, i64, ptr, ptr, i32, i32, i32, i32, i32, ptr, ptr, ptr, i32, i32, i32, i32, i32, i32, i32, i64, i32, i64, i32, i32, i32, i32, i32, i32, i32, i64, ptr, ptr, i64, ptr, i32, %struct.aclInfo, i32, i64, i32, i32, i32, %struct.redisTLSContextConfig, ptr, ptr, ptr, ptr, ptr, i64, i32, ptr, i32, i32, i32, i64, i32, ptr }
%struct.connListener = type { [16 x i32], i32, ptr, i32, i32, ptr, ptr }
%struct.pause_event = type { i32, i64 }
%struct.malloc_stats = type { i64, i64, i64, i64, i64 }
%struct.anon = type { i64, i64, [16 x i64], i32 }
%struct.durationStats = type { i64, i64, i64 }
%struct.clientBufferLimitsConfig = type { i64, i64, i64 }
%struct.redisOpArray = type { ptr, i32, i32 }
%struct.aclInfo = type { i64, i64, i64, i64 }
%struct.redisTLSContextConfig = type { ptr, ptr, ptr, ptr, ptr, ptr, ptr, ptr, ptr, ptr, ptr, ptr, i32, i32, i32, i32 }
%struct.client = type { i64, i64, ptr, i32, ptr, ptr, ptr, ptr, ptr, i64, i64, i32, ptr, i32, i32, ptr, i64, ptr, ptr, ptr, ptr, i32, i32, i64, ptr, i64, ptr, i64, i64, i64, i32, ptr, i64, i64, i32, i32, i32, i32, i64, i64, ptr, i64, i64, i64, i64, i64, i64, i64, i64, [41 x i8], i32, ptr, i32, i32, %struct.multiState, %struct.blockingState, i64, ptr, ptr, ptr, ptr, ptr, ptr, ptr, ptr, ptr, ptr, ptr, ptr, ptr, ptr, i64, ptr, i64, i32, ptr, ptr, ptr, i64, %struct.listNode, i64, i64, i32, i64, ptr }
%struct.multiState = type { ptr, i32, i32, i32, i64, i32 }
%struct.blockingState = type { i32, i64, i32, ptr, i32, i32, i64, ptr, ptr }
%struct.listNode = type { ptr, ptr, ptr }
%struct.connection = type { ptr, i32, i32, i32, i16, i16, i16, ptr, ptr, ptr, ptr }
%struct.ConnectionType = type { ptr, ptr, ptr, ptr, ptr, ptr, ptr, ptr, ptr, ptr, ptr, ptr, ptr, ptr, ptr, ptr, ptr, ptr, ptr, ptr, ptr, ptr, ptr, ptr, ptr, ptr, ptr, ptr }

@server = external global %struct.redisServer, align 8

; Function Attrs: nounwind uwtable
define internal i32 @connSetReadHandler(ptr noundef %conn, ptr noundef %func) #0 {
entry:
  %conn.addr = alloca ptr, align 8
  %func.addr = alloca ptr, align 8
  store ptr %conn, ptr %conn.addr, align 8
  store ptr %func, ptr %func.addr, align 8
  %0 = load ptr, ptr %conn.addr, align 8
  %type = getelementptr inbounds %struct.connection, ptr %0, i32 0, i32 0
  %1 = load ptr, ptr %type, align 8
  %set_read_handler = getelementptr inbounds %struct.ConnectionType, ptr %1, i32 0, i32 20
  %2 = load ptr, ptr %set_read_handler, align 8
  %3 = load ptr, ptr %conn.addr, align 8
  %4 = load ptr, ptr %func.addr, align 8
  %call = call i32 %2(ptr noundef %3, ptr noundef %4)
  ret i32 %call
}

; Function Attrs: nounwind uwtable
define dso_local void @replicationCreateMasterClient(ptr noundef %conn, i32 noundef %dbid) #0 {
entry:
  %conn.addr = alloca ptr, align 8
  %dbid.addr = alloca i32, align 4
  store ptr %conn, ptr %conn.addr, align 8
  store i32 %dbid, ptr %dbid.addr, align 4
  %0 = load ptr, ptr %conn.addr, align 8
  %call = call ptr @createClient(ptr noundef %0)
  store ptr %call, ptr getelementptr inbounds (%struct.redisServer, ptr @server, i32 0, i32 286), align 8
  %1 = load ptr, ptr %conn.addr, align 8
  %tobool = icmp ne ptr %1, null
  br i1 %tobool, label %if.then, label %if.end

if.then:                                          ; preds = %entry
  %2 = load ptr, ptr getelementptr inbounds (%struct.redisServer, ptr @server, i32 0, i32 286), align 8
  %conn1 = getelementptr inbounds %struct.client, ptr %2, i32 0, i32 2
  %3 = load ptr, ptr %conn1, align 8
  %call2 = call i32 @connSetReadHandler(ptr noundef %3, ptr noundef @readQueryFromClient)
  br label %if.end

if.end:                                           ; preds = %if.then, %entry
  %4 = load ptr, ptr getelementptr inbounds (%struct.redisServer, ptr @server, i32 0, i32 286), align 8
  %flags = getelementptr inbounds %struct.client, ptr %4, i32 0, i32 1
  %5 = load i64, ptr %flags, align 8
  %or = or i64 %5, 2
  store i64 %or, ptr %flags, align 8
  %6 = load ptr, ptr getelementptr inbounds (%struct.redisServer, ptr @server, i32 0, i32 286), align 8
  %authenticated = getelementptr inbounds %struct.client, ptr %6, i32 0, i32 34
  store i32 1, ptr %authenticated, align 8
  %7 = load i64, ptr getelementptr inbounds (%struct.redisServer, ptr @server, i32 0, i32 309), align 8
  %8 = load ptr, ptr getelementptr inbounds (%struct.redisServer, ptr @server, i32 0, i32 286), align 8
  %reploff = getelementptr inbounds %struct.client, ptr %8, i32 0, i32 42
  store i64 %7, ptr %reploff, align 8
  %9 = load ptr, ptr getelementptr inbounds (%struct.redisServer, ptr @server, i32 0, i32 286), align 8
  %reploff3 = getelementptr inbounds %struct.client, ptr %9, i32 0, i32 42
  %10 = load i64, ptr %reploff3, align 8
  %11 = load ptr, ptr getelementptr inbounds (%struct.redisServer, ptr @server, i32 0, i32 286), align 8
  %read_reploff = getelementptr inbounds %struct.client, ptr %11, i32 0, i32 41
  store i64 %10, ptr %read_reploff, align 8
  %12 = load ptr, ptr getelementptr inbounds (%struct.redisServer, ptr @server, i32 0, i32 286), align 8
  %user = getelementptr inbounds %struct.client, ptr %12, i32 0, i32 20
  store ptr null, ptr %user, align 8
  %13 = load ptr, ptr getelementptr inbounds (%struct.redisServer, ptr @server, i32 0, i32 286), align 8
  %replid = getelementptr inbounds %struct.client, ptr %13, i32 0, i32 49
  %arraydecay = getelementptr inbounds [41 x i8], ptr %replid, i64 0, i64 0
  call void @llvm.memcpy.p0.p0.i64(ptr align 8 %arraydecay, ptr align 8 getelementptr inbounds (%struct.redisServer, ptr @server, i32 0, i32 308), i64 41, i1 false)
  %14 = load ptr, ptr getelementptr inbounds (%struct.redisServer, ptr @server, i32 0, i32 286), align 8
  %reploff4 = getelementptr inbounds %struct.client, ptr %14, i32 0, i32 42
  %15 = load i64, ptr %reploff4, align 8
  %cmp = icmp eq i64 %15, -1
  br i1 %cmp, label %if.then5, label %if.end8

if.then5:                                         ; preds = %if.end
  %16 = load ptr, ptr getelementptr inbounds (%struct.redisServer, ptr @server, i32 0, i32 286), align 8
  %flags6 = getelementptr inbounds %struct.client, ptr %16, i32 0, i32 1
  %17 = load i64, ptr %flags6, align 8
  %or7 = or i64 %17, 65536
  store i64 %or7, ptr %flags6, align 8
  br label %if.end8

if.end8:                                          ; preds = %if.then5, %if.end
  %18 = load i32, ptr %dbid.addr, align 4
  %cmp9 = icmp ne i32 %18, -1
  br i1 %cmp9, label %if.then10, label %if.end12

if.then10:                                        ; preds = %if.end8
  %19 = load ptr, ptr getelementptr inbounds (%struct.redisServer, ptr @server, i32 0, i32 286), align 8
  %20 = load i32, ptr %dbid.addr, align 4
  %call11 = call i32 @selectDb(ptr noundef %19, i32 noundef %20)
  br label %if.end12

if.end12:                                         ; preds = %if.then10, %if.end8
  ret void
}