; Function Attrs: nounwind uwtable
define dso_local void @replicationCreateMasterClient(ptr noundef %conn, i32 noundef %dbid) local_unnamed_addr #0 {
entry:
  %call = tail call ptr @createClient(ptr noundef %conn) #21
  store ptr %call, ptr getelementptr inbounds (%struct.redisServer, ptr @server, i64 0, i32 286), align 8
  %tobool.not = icmp eq ptr %conn, null
  br i1 %tobool.not, label %if.end, label %if.then

if.then:                                          ; preds = %entry
  %conn1 = getelementptr inbounds i8, ptr %call, i64 16
  %0 = load ptr, ptr %conn1, align 8
  %1 = load ptr, ptr %0, align 8
  %set_read_handler.i = getelementptr inbounds i8, ptr %1, i64 160
  %2 = load ptr, ptr %set_read_handler.i, align 8
  %call.i = tail call i32 %2(ptr noundef nonnull %0, ptr noundef nonnull @readQueryFromClient) #21
  %.pre = load ptr, ptr getelementptr inbounds (%struct.redisServer, ptr @server, i64 0, i32 286), align 8
  br label %if.end

if.end:                                           ; preds = %if.then, %entry
  %3 = phi ptr [ %.pre, %if.then ], [ %call, %entry ]
  %flags = getelementptr inbounds i8, ptr %3, i64 8
  %4 = load i64, ptr %flags, align 8
  %or = or i64 %4, 2
  store i64 %or, ptr %flags, align 8
  %5 = load ptr, ptr getelementptr inbounds (%struct.redisServer, ptr @server, i64 0, i32 286), align 8
  %authenticated = getelementptr inbounds i8, ptr %5, i64 256
  store i32 1, ptr %authenticated, align 8
  %6 = load i64, ptr getelementptr inbounds (%struct.redisServer, ptr @server, i64 0, i32 309), align 8
  %7 = load ptr, ptr getelementptr inbounds (%struct.redisServer, ptr @server, i64 0, i32 286), align 8
  %reploff = getelementptr inbounds i8, ptr %7, i64 304
  store i64 %6, ptr %reploff, align 8
  %8 = load ptr, ptr getelementptr inbounds (%struct.redisServer, ptr @server, i64 0, i32 286), align 8
  %reploff3 = getelementptr inbounds i8, ptr %8, i64 304
  %9 = load i64, ptr %reploff3, align 8
  %read_reploff = getelementptr inbounds i8, ptr %8, i64 296
  store i64 %9, ptr %read_reploff, align 8
  %10 = load ptr, ptr getelementptr inbounds (%struct.redisServer, ptr @server, i64 0, i32 286), align 8
  %user = getelementptr inbounds i8, ptr %10, i64 152
  store ptr null, ptr %user, align 8
  %11 = load ptr, ptr getelementptr inbounds (%struct.redisServer, ptr @server, i64 0, i32 286), align 8
  %replid = getelementptr inbounds i8, ptr %11, i64 360
  tail call void @llvm.memcpy.p0.p0.i64(ptr noundef nonnull align 8 dereferenceable(41) %replid, ptr noundef nonnull align 8 dereferenceable(41) getelementptr inbounds (%struct.redisServer, ptr @server, i64 0, i32 308), i64 41, i1 false)
  %12 = load ptr, ptr getelementptr inbounds (%struct.redisServer, ptr @server, i64 0, i32 286), align 8
  %reploff4 = getelementptr inbounds i8, ptr %12, i64 304
  %13 = load i64, ptr %reploff4, align 8
  %cmp = icmp eq i64 %13, -1
  br i1 %cmp, label %if.then5, label %if.end8

if.then5:                                         ; preds = %if.end
  %flags6 = getelementptr inbounds i8, ptr %12, i64 8
  %14 = load i64, ptr %flags6, align 8
  %or7 = or i64 %14, 65536
  store i64 %or7, ptr %flags6, align 8
  br label %if.end8

if.end8:                                          ; preds = %if.then5, %if.end
  %cmp9.not = icmp eq i32 %dbid, -1
  br i1 %cmp9.not, label %if.end12, label %if.then10

if.then10:                                        ; preds = %if.end8
  %15 = load ptr, ptr getelementptr inbounds (%struct.redisServer, ptr @server, i64 0, i32 286), align 8
  %call11 = tail call i32 @selectDb(ptr noundef %15, i32 noundef %dbid) #21
  br label %if.end12

if.end12:                                         ; preds = %if.then10, %if.end8
  ret void
}